target datalayout = "e-m:e-p270:32:32-p271:32:32-p272:64:64-i64:64-i128:128-f80:128-n8:16:32:64-S128"
target triple = "x86_64-pc-linux-gnu"

@proto_register_fw1.ett = internal global [1 x ptr] [ptr @ett_fw1], align 8
@.str.12 = private unnamed_addr constant [16 x i8] c"Checkpoint FW-1\00", align 1
@.str.13 = private unnamed_addr constant [5 x i8] c"FW-1\00", align 1
@.str.14 = private unnamed_addr constant [4 x i8] c"fw1\00", align 1
@proto_fw1 = internal global i32 0, align 4
@.str.15 = private unnamed_addr constant [16 x i8] c"summary_in_tree\00", align 1
@.str.16 = private unnamed_addr constant [41 x i8] c"Show FireWall-1 summary in protocol tree\00", align 1
@.str.17 = private unnamed_addr constant [73 x i8] c"Whether the FireWall-1 summary line should be shown in the protocol tree\00", align 1
@fw1_summary_in_tree = internal global i8 1, align 1
@.str.18 = private unnamed_addr constant [10 x i8] c"with_uuid\00", align 1
@.str.19 = private unnamed_addr constant [27 x i8] c"Monitor file includes UUID\00", align 1
@.str.20 = private unnamed_addr constant [62 x i8] c"Whether the Firewall-1 monitor file includes UUID information\00", align 1
@fw1_with_uuid = internal global i8 0, align 1
@.str.21 = private unnamed_addr constant [18 x i8] c"iflist_with_chain\00", align 1
@.str.22 = private unnamed_addr constant [39 x i8] c"Interface list includes chain position\00", align 1
@.str.23 = private unnamed_addr constant [55 x i8] c"Whether the interface list includes the chain position\00", align 1
@fw1_iflist_with_chain = internal global i8 0, align 1
@p_interfaces = internal global [20 x ptr] zeroinitializer, align 16

; Function Attrs: null_pointer_is_valid sspstrong uwtable
define hidden void @proto_register_fw1() #0 {
  %1 = alloca ptr, align 8
  %2 = alloca i32, align 4
  call void @llvm.lifetime.start.p0(i64 8, ptr %1) #5
  call void @llvm.lifetime.start.p0(i64 4, ptr %2) #5
  %3 = call i32 @proto_register_protocol(ptr noundef @.str.12, ptr noundef @.str.13, ptr noundef @.str.14)
  store i32 %3, ptr @proto_fw1, align 4
  %4 = load i32, ptr @proto_fw1, align 4
  call void @proto_register_field_array(i32 noundef %4, ptr noundef @proto_register_fw1.hf, i32 noundef 6)
  call void @proto_register_subtree_array(ptr noundef @proto_register_fw1.ett, i32 noundef 1)
  %5 = load i32, ptr @proto_fw1, align 4
  %6 = call ptr @prefs_register_protocol(i32 noundef %5, ptr noundef null)
  store ptr %6, ptr %1, align 8
  %7 = load ptr, ptr %1, align 8
  call void @prefs_register_bool_preference(ptr noundef %7, ptr noundef @.str.15, ptr noundef @.str.16, ptr noundef @.str.17, ptr noundef @fw1_summary_in_tree)
  %8 = load ptr, ptr %1, align 8
  call void @prefs_register_bool_preference(ptr noundef %8, ptr noundef @.str.18, ptr noundef @.str.19, ptr noundef @.str.20, ptr noundef @fw1_with_uuid)
  %9 = load ptr, ptr %1, align 8
  call void @prefs_register_bool_preference(ptr noundef %9, ptr noundef @.str.21, ptr noundef @.str.22, ptr noundef @.str.23, ptr noundef @fw1_iflist_with_chain)
  %10 = load i32, ptr @proto_fw1, align 4
  %11 = call ptr @register_dissector(ptr noundef @.str.14, ptr noundef @dissect_fw1, i32 noundef %10)
  store i32 0, ptr %2, align 4
  br label %12

12:                                               ; preds = %19, %0
  %13 = load i32, ptr %2, align 4
  %14 = icmp slt i32 %13, 20
  br i1 %14, label %15, label %22

15:                                               ; preds = %12
  %16 = load i32, ptr %2, align 4
  %17 = sext i32 %16 to i64
  %18 = getelementptr [20 x ptr], ptr @p_interfaces, i64 0, i64 %17
  store ptr null, ptr %18, align 8
  br label %19

19:                                               ; preds = %15
  %20 = load i32, ptr %2, align 4
  %21 = add i32 %20, 1
  store i32 %21, ptr %2, align 4
  br label %12, !llvm.loop !6

22:                                               ; preds = %12
  call void @register_init_routine(ptr noundef @fw1_init)
  call void @llvm.lifetime.end.p0(i64 4, ptr %2) #5
  call void @llvm.lifetime.end.p0(i64 8, ptr %1) #5
  ret void
}