; Function Attrs: null_pointer_is_valid sspstrong uwtable
define hidden void @proto_register_fw1() local_unnamed_addr #0 {
  %1 = tail call i32 @proto_register_protocol(ptr noundef nonnull @.str.12, ptr noundef nonnull @.str.13, ptr noundef nonnull @.str.14)
  store i32 %1, ptr @proto_fw1, align 4
  tail call void @proto_register_field_array(i32 noundef %1, ptr noundef nonnull @proto_register_fw1.hf, i32 noundef 6)
  tail call void @proto_register_subtree_array(ptr noundef nonnull @proto_register_fw1.ett, i32 noundef 1)
  %2 = load i32, ptr @proto_fw1, align 4
  %3 = tail call ptr @prefs_register_protocol(i32 noundef %2, ptr noundef null)
  tail call void @prefs_register_bool_preference(ptr noundef %3, ptr noundef nonnull @.str.15, ptr noundef nonnull @.str.16, ptr noundef nonnull @.str.17, ptr noundef nonnull @fw1_summary_in_tree)
  tail call void @prefs_register_bool_preference(ptr noundef %3, ptr noundef nonnull @.str.18, ptr noundef nonnull @.str.19, ptr noundef nonnull @.str.20, ptr noundef nonnull @fw1_with_uuid)
  tail call void @prefs_register_bool_preference(ptr noundef %3, ptr noundef nonnull @.str.21, ptr noundef nonnull @.str.22, ptr noundef nonnull @.str.23, ptr noundef nonnull @fw1_iflist_with_chain)
  %4 = load i32, ptr @proto_fw1, align 4
  %5 = tail call ptr @register_dissector(ptr noundef nonnull @.str.14, ptr noundef nonnull @dissect_fw1, i32 noundef %4)
  tail call void @llvm.memset.p0.i64(ptr noundef nonnull align 16 dereferenceable(160) @p_interfaces, i8 0, i64 160, i1 false)
  tail call void @register_init_routine(ptr noundef nonnull @fw1_init)
  ret void
}